target datalayout = "e-m:e-p270:32:32-p271:32:32-p272:64:64-i64:64-i128:128-f80:128-n8:16:32:64-S128"
target triple = "x86_64-pc-linux-gnu"

%"union.pxrInternal_v0_24__pxrReserved__::pxr_half::half::uif" = type { i32 }
%"class.pxrInternal_v0_24__pxrReserved__::Vt_ArrayBase" = type { %"struct.pxrInternal_v0_24__pxrReserved__::Vt_ShapeData", ptr }
%"struct.pxrInternal_v0_24__pxrReserved__::Vt_ShapeData" = type { i64, [3 x i32] }
%"class.pxrInternal_v0_24__pxrReserved__::VtArray.84" = type { %"class.pxrInternal_v0_24__pxrReserved__::Vt_ArrayBase", ptr }
%"class.pxrInternal_v0_24__pxrReserved__::pxr_half::half" = type { i16 }

@.str.61 = private unnamed_addr constant [5 x i8] c"half\00", align 1
@_ZN32pxrInternal_v0_24__pxrReserved__8pxr_half4half5_eLutE = external constant [512 x i16], align 16

; Function Attrs: mustprogress uwtable
define linkonce_odr dso_local void @_ZN32pxrInternal_v0_24__pxrReserved__8pxr_half4halfC2Ef(ptr noundef nonnull align 2 dereferenceable(2) %0, float noundef %1) unnamed_addr #4 comdat align 2 {
  %3 = alloca ptr, align 8
  %4 = alloca float, align 4
  %5 = alloca %"union.pxrInternal_v0_24__pxrReserved__::pxr_half::half::uif", align 4
  %6 = alloca i32, align 4
  %7 = alloca i32, align 4
  store ptr %0, ptr %3, align 8
  store float %1, ptr %4, align 4
  %8 = load ptr, ptr %3, align 8
  %9 = load float, ptr %4, align 4
  store float %9, ptr %5, align 4
  %10 = load float, ptr %4, align 4
  %11 = fcmp oeq float %10, 0.000000e+00
  br i1 %11, label %12, label %17

12:                                               ; preds = %2
  %13 = load i32, ptr %5, align 4
  %14 = lshr i32 %13, 16
  %15 = trunc i32 %14 to i16
  %16 = getelementptr inbounds nuw %"class.pxrInternal_v0_24__pxrReserved__::pxr_half::half", ptr %8, i32 0, i32 0
  store i16 %15, ptr %16, align 2
  br label %47

17:                                               ; preds = %2
  %18 = load i32, ptr %5, align 4
  %19 = lshr i32 %18, 23
  %20 = and i32 %19, 511
  store i32 %20, ptr %6, align 4
  %21 = load i32, ptr %6, align 4
  %22 = sext i32 %21 to i64
  %23 = getelementptr inbounds [512 x i16], ptr @_ZN32pxrInternal_v0_24__pxrReserved__8pxr_half4half5_eLutE, i64 0, i64 %22
  %24 = load i16, ptr %23, align 2
  %25 = zext i16 %24 to i32
  store i32 %25, ptr %6, align 4
  %26 = load i32, ptr %6, align 4
  %27 = icmp ne i32 %26, 0
  br i1 %27, label %28, label %42

28:                                               ; preds = %17
  %29 = load i32, ptr %5, align 4
  %30 = and i32 %29, 8388607
  store i32 %30, ptr %7, align 4
  %31 = load i32, ptr %6, align 4
  %32 = load i32, ptr %7, align 4
  %33 = add nsw i32 %32, 4095
  %34 = load i32, ptr %7, align 4
  %35 = ashr i32 %34, 13
  %36 = and i32 %35, 1
  %37 = add nsw i32 %33, %36
  %38 = ashr i32 %37, 13
  %39 = add nsw i32 %31, %38
  %40 = trunc i32 %39 to i16
  %41 = getelementptr inbounds nuw %"class.pxrInternal_v0_24__pxrReserved__::pxr_half::half", ptr %8, i32 0, i32 0
  store i16 %40, ptr %41, align 2
  br label %46

42:                                               ; preds = %17
  %43 = load i32, ptr %5, align 4
  %44 = call noundef signext i16 @_ZN32pxrInternal_v0_24__pxrReserved__8pxr_half4half7convertEi(i32 noundef %43)
  %45 = getelementptr inbounds nuw %"class.pxrInternal_v0_24__pxrReserved__::pxr_half::half", ptr %8, i32 0, i32 0
  store i16 %44, ptr %45, align 2
  br label %46

46:                                               ; preds = %42, %28
  br label %47

47:                                               ; preds = %46, %12
  ret void
}

; Function Attrs: mustprogress uwtable
define dso_local void @_Z7GetInfoIN32pxrInternal_v0_24__pxrReserved__8pxr_half4halfEEvPNS0_7VtArrayIT_EEPNSt7__cxx1112basic_stringIcSt11char_traitsIcESaIcEEE(ptr noundef %0, ptr noundef %1) #4 personality ptr @__gxx_personality_v0 {
  %3 = alloca ptr, align 8
  %4 = alloca ptr, align 8
  %5 = alloca %"class.pxrInternal_v0_24__pxrReserved__::VtArray.84", align 8
  %6 = alloca ptr, align 8
  %7 = alloca i32, align 4
  %8 = alloca %"class.pxrInternal_v0_24__pxrReserved__::pxr_half::half", align 2
  %9 = alloca %"class.pxrInternal_v0_24__pxrReserved__::pxr_half::half", align 2
  %10 = alloca %"class.pxrInternal_v0_24__pxrReserved__::pxr_half::half", align 2
  store ptr %0, ptr %3, align 8
  store ptr %1, ptr %4, align 8
  %11 = load ptr, ptr %4, align 8
  %12 = call noundef nonnull align 8 dereferenceable(32) ptr @_ZNSt7__cxx1112basic_stringIcSt11char_traitsIcESaIcEEaSEPKc(ptr noundef nonnull align 8 dereferenceable(32) %11, ptr noundef @.str.61)
  call void @_ZN32pxrInternal_v0_24__pxrReserved__7VtArrayINS_8pxr_half4halfEEC1Em(ptr noundef nonnull align 8 dereferenceable(40) %5, i64 noundef 3)
  %13 = load ptr, ptr %3, align 8
  %14 = invoke noundef nonnull align 8 dereferenceable(40) ptr @_ZN32pxrInternal_v0_24__pxrReserved__7VtArrayINS_8pxr_half4halfEEaSEOS3_(ptr noundef nonnull align 8 dereferenceable(40) %13, ptr noundef nonnull align 8 dereferenceable(40) %5)
          to label %15 unwind label %22

15:                                               ; preds = %2
  call void @_ZN32pxrInternal_v0_24__pxrReserved__7VtArrayINS_8pxr_half4halfEED1Ev(ptr noundef nonnull align 8 dereferenceable(40) %5) #3
  call void @_ZN32pxrInternal_v0_24__pxrReserved__8pxr_half4halfC2Ef(ptr noundef nonnull align 2 dereferenceable(2) %8, float noundef 5.000000e-01)
  %16 = load ptr, ptr %3, align 8
  %17 = call noundef nonnull align 2 dereferenceable(2) ptr @_ZN32pxrInternal_v0_24__pxrReserved__7VtArrayINS_8pxr_half4halfEEixEm(ptr noundef nonnull align 8 dereferenceable(40) %16, i64 noundef 0)
  call void @llvm.memcpy.p0.p0.i64(ptr align 2 %17, ptr align 2 %8, i64 2, i1 false)
  call void @_ZN32pxrInternal_v0_24__pxrReserved__8pxr_half4halfC2Ef(ptr noundef nonnull align 2 dereferenceable(2) %9, float noundef 1.500000e+00)
  %18 = load ptr, ptr %3, align 8
  %19 = call noundef nonnull align 2 dereferenceable(2) ptr @_ZN32pxrInternal_v0_24__pxrReserved__7VtArrayINS_8pxr_half4halfEEixEm(ptr noundef nonnull align 8 dereferenceable(40) %18, i64 noundef 1)
  call void @llvm.memcpy.p0.p0.i64(ptr align 2 %19, ptr align 2 %9, i64 2, i1 false)
  call void @_ZN32pxrInternal_v0_24__pxrReserved__8pxr_half4halfC2Ef(ptr noundef nonnull align 2 dereferenceable(2) %10, float noundef 2.500000e+00)
  %20 = load ptr, ptr %3, align 8
  %21 = call noundef nonnull align 2 dereferenceable(2) ptr @_ZN32pxrInternal_v0_24__pxrReserved__7VtArrayINS_8pxr_half4halfEEixEm(ptr noundef nonnull align 8 dereferenceable(40) %20, i64 noundef 2)
  call void @llvm.memcpy.p0.p0.i64(ptr align 2 %21, ptr align 2 %10, i64 2, i1 false)
  ret void

22:                                               ; preds = %2
  %23 = landingpad { ptr, i32 }
          cleanup
  %24 = extractvalue { ptr, i32 } %23, 0
  store ptr %24, ptr %6, align 8
  %25 = extractvalue { ptr, i32 } %23, 1
  store i32 %25, ptr %7, align 4
  call void @_ZN32pxrInternal_v0_24__pxrReserved__7VtArrayINS_8pxr_half4halfEED1Ev(ptr noundef nonnull align 8 dereferenceable(40) %5) #3
  br label %26

26:                                               ; preds = %22
  %27 = load ptr, ptr %6, align 8
  %28 = load i32, ptr %7, align 4
  %29 = insertvalue { ptr, i32 } poison, ptr %27, 0
  %30 = insertvalue { ptr, i32 } %29, i32 %28, 1
  resume { ptr, i32 } %30
}