; Function Attrs: mustprogress uwtable
define dso_local void @_Z7GetInfoIN32pxrInternal_v0_24__pxrReserved__8pxr_half4halfEEvPNS0_7VtArrayIT_EEPNSt7__cxx1112basic_stringIcSt11char_traitsIcESaIcEEE(ptr noundef %0, ptr noundef nonnull %1) local_unnamed_addr #3 personality ptr @__gxx_personality_v0 {
  %3 = alloca %"class.pxrInternal_v0_24__pxrReserved__::VtArray.84", align 8
  %4 = tail call noundef nonnull align 8 dereferenceable(32) ptr @_ZNSt7__cxx1112basic_stringIcSt11char_traitsIcESaIcEEaSEPKc(ptr noundef nonnull align 8 dereferenceable(32) %1, ptr noundef nonnull @.str.61)
  call void @_ZN32pxrInternal_v0_24__pxrReserved__7VtArrayINS_8pxr_half4halfEEC1Em(ptr noundef nonnull align 8 dereferenceable(40) %3, i64 noundef 3)
  %5 = invoke noundef nonnull align 8 dereferenceable(40) ptr @_ZN32pxrInternal_v0_24__pxrReserved__7VtArrayINS_8pxr_half4halfEEaSEOS3_(ptr noundef nonnull align 8 dereferenceable(40) %0, ptr noundef nonnull align 8 dereferenceable(40) %3)
          to label %6 unwind label %23

6:                                                ; preds = %2
  call void @_ZN32pxrInternal_v0_24__pxrReserved__7VtArrayINS_8pxr_half4halfEED1Ev(ptr noundef nonnull align 8 dereferenceable(40) %3) #25
  %7 = load i16, ptr getelementptr inbounds (i8, ptr @_ZN32pxrInternal_v0_24__pxrReserved__8pxr_half4half5_eLutE, i64 252), align 4
  %.not.i = icmp eq i16 %7, 0
  br i1 %.not.i, label %8, label %_ZN32pxrInternal_v0_24__pxrReserved__8pxr_half4halfC2Ef.exit

8:                                                ; preds = %6
  %9 = call noundef signext i16 @_ZN32pxrInternal_v0_24__pxrReserved__8pxr_half4half7convertEi(i32 noundef 1056964608)
  br label %_ZN32pxrInternal_v0_24__pxrReserved__8pxr_half4halfC2Ef.exit

_ZN32pxrInternal_v0_24__pxrReserved__8pxr_half4halfC2Ef.exit: ; preds = %6, %8
  %.sink.i = phi i16 [ %9, %8 ], [ %7, %6 ]
  %10 = call noundef nonnull align 2 dereferenceable(2) ptr @_ZN32pxrInternal_v0_24__pxrReserved__7VtArrayINS_8pxr_half4halfEEixEm(ptr noundef nonnull align 8 dereferenceable(40) %0, i64 noundef 0)
  store i16 %.sink.i, ptr %10, align 2
  %11 = load i16, ptr getelementptr inbounds (i8, ptr @_ZN32pxrInternal_v0_24__pxrReserved__8pxr_half4half5_eLutE, i64 254), align 2
  %.not.i6 = icmp eq i16 %11, 0
  br i1 %.not.i6, label %14, label %12

12:                                               ; preds = %_ZN32pxrInternal_v0_24__pxrReserved__8pxr_half4halfC2Ef.exit
  %13 = add i16 %11, 512
  br label %_ZN32pxrInternal_v0_24__pxrReserved__8pxr_half4halfC2Ef.exit8

14:                                               ; preds = %_ZN32pxrInternal_v0_24__pxrReserved__8pxr_half4halfC2Ef.exit
  %15 = call noundef signext i16 @_ZN32pxrInternal_v0_24__pxrReserved__8pxr_half4half7convertEi(i32 noundef 1069547520)
  br label %_ZN32pxrInternal_v0_24__pxrReserved__8pxr_half4halfC2Ef.exit8

_ZN32pxrInternal_v0_24__pxrReserved__8pxr_half4halfC2Ef.exit8: ; preds = %12, %14
  %.sink.i7 = phi i16 [ %13, %12 ], [ %15, %14 ]
  %16 = call noundef nonnull align 2 dereferenceable(2) ptr @_ZN32pxrInternal_v0_24__pxrReserved__7VtArrayINS_8pxr_half4halfEEixEm(ptr noundef nonnull align 8 dereferenceable(40) %0, i64 noundef 1)
  store i16 %.sink.i7, ptr %16, align 2
  %17 = load i16, ptr getelementptr inbounds (i8, ptr @_ZN32pxrInternal_v0_24__pxrReserved__8pxr_half4half5_eLutE, i64 256), align 16
  %.not.i9 = icmp eq i16 %17, 0
  br i1 %.not.i9, label %20, label %18

18:                                               ; preds = %_ZN32pxrInternal_v0_24__pxrReserved__8pxr_half4halfC2Ef.exit8
  %19 = add i16 %17, 256
  br label %_ZN32pxrInternal_v0_24__pxrReserved__8pxr_half4halfC2Ef.exit11

20:                                               ; preds = %_ZN32pxrInternal_v0_24__pxrReserved__8pxr_half4halfC2Ef.exit8
  %21 = call noundef signext i16 @_ZN32pxrInternal_v0_24__pxrReserved__8pxr_half4half7convertEi(i32 noundef 1075838976)
  br label %_ZN32pxrInternal_v0_24__pxrReserved__8pxr_half4halfC2Ef.exit11

_ZN32pxrInternal_v0_24__pxrReserved__8pxr_half4halfC2Ef.exit11: ; preds = %18, %20
  %.sink.i10 = phi i16 [ %19, %18 ], [ %21, %20 ]
  %22 = call noundef nonnull align 2 dereferenceable(2) ptr @_ZN32pxrInternal_v0_24__pxrReserved__7VtArrayINS_8pxr_half4halfEEixEm(ptr noundef nonnull align 8 dereferenceable(40) %0, i64 noundef 2)
  store i16 %.sink.i10, ptr %22, align 2
  ret void

23:                                               ; preds = %2
  %24 = landingpad { ptr, i32 }
          cleanup
  call void @_ZN32pxrInternal_v0_24__pxrReserved__7VtArrayINS_8pxr_half4halfEED1Ev(ptr noundef nonnull align 8 dereferenceable(40) %3) #25
  resume { ptr, i32 } %24
}